target datalayout = "e-m:e-p270:32:32-p271:32:32-p272:64:64-i64:64-i128:128-f80:128-n8:16:32:64-S128"
target triple = "x86_64-unknown-linux-gnu"

%"class.EA::StdC::DateTime" = type <{ i64, i32, [4 x i8] }>

; Function Attrs: mustprogress uwtable
define dso_local void @_ZN2EA4StdC8DateTime12SetParameterENS0_9ParameterEj(ptr noundef nonnull align 8 dereferenceable(12) %this, i32 noundef %parameter, i32 noundef %nValue) #0 align 2 {
entry:
  %this.addr = alloca ptr, align 8
  %parameter.addr = alloca i32, align 4
  %nValue.addr = alloca i32, align 4
  %nDayOfYear = alloca i32, align 4
  %nDayOfWeek = alloca i32, align 4
  %nParameterValue = alloca i32, align 4
  store ptr %this, ptr %this.addr, align 8
  store i32 %parameter, ptr %parameter.addr, align 4
  store i32 %nValue, ptr %nValue.addr, align 4
  %this1 = load ptr, ptr %this.addr, align 8
  %0 = load i32, ptr %parameter.addr, align 4
  switch i32 %0, label %sw.default [
    i32 1, label %sw.bb
    i32 2, label %sw.bb2
    i32 6, label %sw.bb3
    i32 8, label %sw.bb4
    i32 9, label %sw.bb5
    i32 10, label %sw.bb6
    i32 11, label %sw.bb7
    i32 5, label %sw.bb8
    i32 7, label %sw.bb9
    i32 3, label %sw.bb17
    i32 4, label %sw.bb17
    i32 0, label %sw.bb25
  ]

sw.bb:                                            ; preds = %entry
  %1 = load i32, ptr %nValue.addr, align 4
  call void @_ZN2EA4StdC8DateTime3SetEjjjjjjj(ptr noundef nonnull align 8 dereferenceable(12) %this1, i32 noundef %1, i32 noundef -1, i32 noundef -1, i32 noundef -1, i32 noundef -1, i32 noundef -1, i32 noundef -1)
  br label %sw.epilog

sw.bb2:                                           ; preds = %entry
  %2 = load i32, ptr %nValue.addr, align 4
  call void @_ZN2EA4StdC8DateTime3SetEjjjjjjj(ptr noundef nonnull align 8 dereferenceable(12) %this1, i32 noundef -1, i32 noundef %2, i32 noundef -1, i32 noundef -1, i32 noundef -1, i32 noundef -1, i32 noundef -1)
  br label %sw.epilog

sw.bb3:                                           ; preds = %entry
  %3 = load i32, ptr %nValue.addr, align 4
  call void @_ZN2EA4StdC8DateTime3SetEjjjjjjj(ptr noundef nonnull align 8 dereferenceable(12) %this1, i32 noundef -1, i32 noundef -1, i32 noundef %3, i32 noundef -1, i32 noundef -1, i32 noundef -1, i32 noundef -1)
  br label %sw.epilog

sw.bb4:                                           ; preds = %entry
  %4 = load i32, ptr %nValue.addr, align 4
  call void @_ZN2EA4StdC8DateTime3SetEjjjjjjj(ptr noundef nonnull align 8 dereferenceable(12) %this1, i32 noundef -1, i32 noundef -1, i32 noundef -1, i32 noundef %4, i32 noundef -1, i32 noundef -1, i32 noundef -1)
  br label %sw.epilog

sw.bb5:                                           ; preds = %entry
  %5 = load i32, ptr %nValue.addr, align 4
  call void @_ZN2EA4StdC8DateTime3SetEjjjjjjj(ptr noundef nonnull align 8 dereferenceable(12) %this1, i32 noundef -1, i32 noundef -1, i32 noundef -1, i32 noundef -1, i32 noundef %5, i32 noundef -1, i32 noundef -1)
  br label %sw.epilog

sw.bb6:                                           ; preds = %entry
  %6 = load i32, ptr %nValue.addr, align 4
  call void @_ZN2EA4StdC8DateTime3SetEjjjjjjj(ptr noundef nonnull align 8 dereferenceable(12) %this1, i32 noundef -1, i32 noundef -1, i32 noundef -1, i32 noundef -1, i32 noundef -1, i32 noundef %6, i32 noundef -1)
  br label %sw.epilog

sw.bb7:                                           ; preds = %entry
  %7 = load i32, ptr %nValue.addr, align 4
  call void @_ZN2EA4StdC8DateTime3SetEjjjjjjj(ptr noundef nonnull align 8 dereferenceable(12) %this1, i32 noundef -1, i32 noundef -1, i32 noundef -1, i32 noundef -1, i32 noundef -1, i32 noundef -1, i32 noundef %7)
  br label %sw.epilog

sw.bb8:                                           ; preds = %entry
  %call = call noundef i32 @_ZNK2EA4StdC8DateTime12GetParameterENS0_9ParameterE(ptr noundef nonnull align 8 dereferenceable(12) %this1, i32 noundef 5)
  store i32 %call, ptr %nDayOfYear, align 4
  %8 = load i32, ptr %nValue.addr, align 4
  %9 = load i32, ptr %nDayOfYear, align 4
  %sub = sub i32 %8, %9
  %mul = mul nsw i32 %sub, 86400
  %conv = sext i32 %mul to i64
  %mnSeconds = getelementptr inbounds %"class.EA::StdC::DateTime", ptr %this1, i32 0, i32 0
  %10 = load i64, ptr %mnSeconds, align 8
  %add = add nsw i64 %10, %conv
  store i64 %add, ptr %mnSeconds, align 8
  br label %sw.epilog

sw.bb9:                                           ; preds = %entry
  %11 = load i32, ptr %nValue.addr, align 4
  %cmp = icmp uge i32 %11, 1
  br i1 %cmp, label %land.lhs.true, label %if.else

land.lhs.true:                                    ; preds = %sw.bb9
  %12 = load i32, ptr %nValue.addr, align 4
  %cmp10 = icmp ule i32 %12, 7
  br i1 %cmp10, label %if.then, label %if.else

if.then:                                          ; preds = %land.lhs.true
  %call11 = call noundef i32 @_ZNK2EA4StdC8DateTime12GetParameterENS0_9ParameterE(ptr noundef nonnull align 8 dereferenceable(12) %this1, i32 noundef 7)
  store i32 %call11, ptr %nDayOfWeek, align 4
  %13 = load i32, ptr %nValue.addr, align 4
  %14 = load i32, ptr %nDayOfWeek, align 4
  %sub12 = sub i32 %13, %14
  %mul13 = mul nsw i32 %sub12, 86400
  %conv14 = sext i32 %mul13 to i64
  %mnSeconds15 = getelementptr inbounds %"class.EA::StdC::DateTime", ptr %this1, i32 0, i32 0
  %15 = load i64, ptr %mnSeconds15, align 8
  %add16 = add nsw i64 %15, %conv14
  store i64 %add16, ptr %mnSeconds15, align 8
  br label %if.end

if.else:                                          ; preds = %land.lhs.true, %sw.bb9
  br label %if.end

if.end:                                           ; preds = %if.else, %if.then
  br label %sw.epilog

sw.bb17:                                          ; preds = %entry, %entry
  %16 = load i32, ptr %parameter.addr, align 4
  %call18 = call noundef i32 @_ZNK2EA4StdC8DateTime12GetParameterENS0_9ParameterE(ptr noundef nonnull align 8 dereferenceable(12) %this1, i32 noundef %16)
  store i32 %call18, ptr %nParameterValue, align 4
  %17 = load i32, ptr %nValue.addr, align 4
  %18 = load i32, ptr %nParameterValue, align 4
  %sub19 = sub i32 %17, %18
  %mul20 = mul nsw i32 %sub19, 7
  %mul21 = mul nsw i32 %mul20, 86400
  %conv22 = sext i32 %mul21 to i64
  %mnSeconds23 = getelementptr inbounds %"class.EA::StdC::DateTime", ptr %this1, i32 0, i32 0
  %19 = load i64, ptr %mnSeconds23, align 8
  %add24 = add nsw i64 %19, %conv22
  store i64 %add24, ptr %mnSeconds23, align 8
  br label %sw.epilog

sw.bb25:                                          ; preds = %entry
  br label %sw.default

sw.default:                                       ; preds = %sw.bb25, %entry
  br label %sw.epilog

sw.epilog:                                        ; preds = %sw.default, %sw.bb17, %if.end, %sw.bb8, %sw.bb7, %sw.bb6, %sw.bb5, %sw.bb4, %sw.bb3, %sw.bb2, %sw.bb
  ret void
}