; Function Attrs: mustprogress nofree nosync nounwind willreturn memory(argmem: readwrite) uwtable
define dso_local void @_ZN2EA4StdC8DateTime12SetParameterENS0_9ParameterEj(ptr noundef nonnull align 8 dereferenceable(12) %this, i32 noundef %parameter, i32 noundef %nValue) local_unnamed_addr #8 align 2 {
entry:
  switch i32 %parameter, label %sw.epilog [
    i32 1, label %sw.bb
    i32 2, label %sw.bb2
    i32 6, label %sw.bb3
    i32 8, label %sw.bb4
    i32 9, label %sw.bb5
    i32 10, label %sw.bb6
    i32 11, label %sw.bb7
    i32 5, label %sw.bb8
    i32 7, label %sw.bb9
    i32 3, label %sw.bb17
    i32 4, label %sw.bb17
  ]

sw.bb:                                            ; preds = %entry
  tail call void @_ZN2EA4StdC8DateTime3SetEjjjjjjj(ptr noundef nonnull align 8 dereferenceable(12) %this, i32 noundef %nValue, i32 noundef -1, i32 noundef -1, i32 noundef -1, i32 noundef -1, i32 noundef -1, i32 noundef -1)
  br label %sw.epilog

sw.bb2:                                           ; preds = %entry
  tail call void @_ZN2EA4StdC8DateTime3SetEjjjjjjj(ptr noundef nonnull align 8 dereferenceable(12) %this, i32 noundef -1, i32 noundef %nValue, i32 noundef -1, i32 noundef -1, i32 noundef -1, i32 noundef -1, i32 noundef -1)
  br label %sw.epilog

sw.bb3:                                           ; preds = %entry
  tail call void @_ZN2EA4StdC8DateTime3SetEjjjjjjj(ptr noundef nonnull align 8 dereferenceable(12) %this, i32 noundef -1, i32 noundef -1, i32 noundef %nValue, i32 noundef -1, i32 noundef -1, i32 noundef -1, i32 noundef -1)
  br label %sw.epilog

sw.bb4:                                           ; preds = %entry
  tail call void @_ZN2EA4StdC8DateTime3SetEjjjjjjj(ptr noundef nonnull align 8 dereferenceable(12) %this, i32 noundef -1, i32 noundef -1, i32 noundef -1, i32 noundef %nValue, i32 noundef -1, i32 noundef -1, i32 noundef -1)
  br label %sw.epilog

sw.bb5:                                           ; preds = %entry
  tail call void @_ZN2EA4StdC8DateTime3SetEjjjjjjj(ptr noundef nonnull align 8 dereferenceable(12) %this, i32 noundef -1, i32 noundef -1, i32 noundef -1, i32 noundef -1, i32 noundef %nValue, i32 noundef -1, i32 noundef -1)
  br label %sw.epilog

sw.bb6:                                           ; preds = %entry
  tail call void @_ZN2EA4StdC8DateTime3SetEjjjjjjj(ptr noundef nonnull align 8 dereferenceable(12) %this, i32 noundef -1, i32 noundef -1, i32 noundef -1, i32 noundef -1, i32 noundef -1, i32 noundef %nValue, i32 noundef -1)
  br label %sw.epilog

sw.bb7:                                           ; preds = %entry
  tail call void @_ZN2EA4StdC8DateTime3SetEjjjjjjj(ptr noundef nonnull align 8 dereferenceable(12) %this, i32 noundef -1, i32 noundef -1, i32 noundef -1, i32 noundef -1, i32 noundef -1, i32 noundef -1, i32 noundef %nValue)
  br label %sw.epilog

sw.bb8:                                           ; preds = %entry
  %0 = load i64, ptr %this, align 8
  %div.i14.i = sdiv i64 %0, 86400
  %div2.i15.i = sdiv i64 %0, 31536000
  %sub.i16.i = add nsw i64 %div2.i15.i, -1
  %div3.neg.i17.i = sdiv i64 %sub.i16.i, -4
  %div6.neg.neg.i18.i = sdiv i64 %sub.i16.i, 100
  %div10.neg.i20.i = sdiv i64 %sub.i16.i, -400
  %sub7.neg.i19.i = add nsw i64 %div.i14.i, -1
  %add.neg.i21.i = add nsw i64 %sub7.neg.i19.i, %div3.neg.i17.i
  %sub11.i22.i = add nsw i64 %add.neg.i21.i, %div6.neg.neg.i18.i
  %sub12.i23.i = add nsw i64 %sub11.i22.i, %div10.neg.i20.i
  %div13.i24.i = sdiv i64 %sub12.i23.i, 365
  %conv.i25.i = trunc i64 %div13.i24.i to i32
  %div3213.i = lshr i32 %conv.i25.i, 2
  %div34.i = udiv i32 %conv.i25.i, 100
  %sub35.i = sub nsw i32 %div3213.i, %div34.i
  %div37.i = udiv i32 %conv.i25.i, 400
  %add38.i = add nsw i32 %sub35.i, %div37.i
  %mul40.i = mul i32 %conv.i25.i, 365
  %add41.i = add i32 %add38.i, %mul40.i
  %1 = trunc i64 %div.i14.i to i32
  %conv44.i.neg = sub i32 %add41.i, %1
  %cmp45.i = icmp eq i32 %add41.i, %1
  %spec.store.select1.i.neg = select i1 %cmp45.i, i32 -1, i32 %conv44.i.neg
  %sub = add i32 %spec.store.select1.i.neg, %nValue
  %mul = mul nsw i32 %sub, 86400
  %conv = sext i32 %mul to i64
  %add = add nsw i64 %0, %conv
  store i64 %add, ptr %this, align 8
  br label %sw.epilog

sw.bb9:                                           ; preds = %entry
  %2 = add i32 %nValue, -1
  %or.cond = icmp ult i32 %2, 7
  br i1 %or.cond, label %if.then, label %sw.epilog

if.then:                                          ; preds = %sw.bb9
  %3 = load i64, ptr %this, align 8
  %div65.i = sdiv i64 %3, 86400
  %rem.i = srem i64 %div65.i, 7
  %conv66.i = trunc nsw i64 %rem.i to i32
  %add67.i.neg = xor i32 %conv66.i, -1
  %sub12 = add nsw i32 %nValue, %add67.i.neg
  %mul13 = mul nsw i32 %sub12, 86400
  %conv14 = sext i32 %mul13 to i64
  %add16 = add nsw i64 %3, %conv14
  store i64 %add16, ptr %this, align 8
  br label %sw.epilog

sw.bb17:                                          ; preds = %entry, %entry
  %call18 = tail call noundef i32 @_ZNK2EA4StdC8DateTime12GetParameterENS0_9ParameterE(ptr noundef nonnull align 8 dereferenceable(12) %this, i32 noundef %parameter)
  %sub19 = sub i32 %nValue, %call18
  %mul21 = mul nsw i32 %sub19, 604800
  %conv22 = sext i32 %mul21 to i64
  %4 = load i64, ptr %this, align 8
  %add24 = add nsw i64 %4, %conv22
  store i64 %add24, ptr %this, align 8
  br label %sw.epilog

sw.epilog:                                        ; preds = %entry, %if.then, %sw.bb9, %sw.bb17, %sw.bb8, %sw.bb7, %sw.bb6, %sw.bb5, %sw.bb4, %sw.bb3, %sw.bb2, %sw.bb
  ret void
}